; Function Attrs: nounwind memory(readwrite, argmem: read) uwtable
define internal fastcc range(i32 0, 2) i32 @arkode_butcher_order3b(ptr noundef readonly captures(address_is_null) %0, ptr noundef readonly captures(address_is_null) %1, ptr noundef readonly captures(address_is_null) %2, i32 noundef %3) unnamed_addr #10 {
  %5 = sext i32 %3 to i64
  %6 = tail call noalias ptr @calloc(i64 noundef %5, i64 noundef 8) #16
  %7 = icmp eq ptr %1, null
  %8 = icmp eq ptr %2, null
  %or.cond.i = or i1 %7, %8
  %9 = icmp eq ptr %6, null
  %or.cond3.i = or i1 %or.cond.i, %9
  %10 = icmp slt i32 %3, 1
  %or.cond5.i = or i1 %10, %or.cond3.i
  br i1 %or.cond5.i, label %arkode_butcher_mv.exit, label %.preheader.us.preheader.i

.preheader.us.preheader.i:                        ; preds = %4
  %11 = zext nneg i32 %3 to i64
  br label %.preheader.us.i

.preheader.us.i:                                  ; preds = %._crit_edge.us.i, %.preheader.us.preheader.i
  %indvars.iv40.i = phi i64 [ 0, %.preheader.us.preheader.i ], [ %indvars.iv.next41.i, %._crit_edge.us.i ]
  %12 = getelementptr inbounds nuw ptr, ptr %1, i64 %indvars.iv40.i
  %13 = load ptr, ptr %12, align 8, !tbaa !12
  %14 = getelementptr inbounds nuw double, ptr %6, i64 %indvars.iv40.i
  %.promoted.us.i = load double, ptr %14, align 8, !tbaa !18
  br label %15

15:                                               ; preds = %15, %.preheader.us.i
  %indvars.iv.i = phi i64 [ 0, %.preheader.us.i ], [ %indvars.iv.next.i, %15 ]
  %16 = phi double [ %.promoted.us.i, %.preheader.us.i ], [ %21, %15 ]
  %17 = getelementptr inbounds nuw double, ptr %13, i64 %indvars.iv.i
  %18 = load double, ptr %17, align 8, !tbaa !18
  %19 = getelementptr inbounds nuw double, ptr %2, i64 %indvars.iv.i
  %20 = load double, ptr %19, align 8, !tbaa !18
  %21 = tail call double @llvm.fmuladd.f64(double %18, double %20, double %16)
  %indvars.iv.next.i = add nuw nsw i64 %indvars.iv.i, 1
  %exitcond.not.i = icmp eq i64 %indvars.iv.next.i, %11
  br i1 %exitcond.not.i, label %._crit_edge.us.i, label %15

._crit_edge.us.i:                                 ; preds = %15
  store double %21, ptr %14, align 8, !tbaa !18
  %indvars.iv.next41.i = add nuw nsw i64 %indvars.iv40.i, 1
  %exitcond44.not.i = icmp eq i64 %indvars.iv.next41.i, %11
  br i1 %exitcond44.not.i, label %22, label %.preheader.us.i

arkode_butcher_mv.exit:                           ; preds = %4
  tail call void @free(ptr noundef %6) #17
  br label %arkode_butcher_dot.exit

22:                                               ; preds = %._crit_edge.us.i
  %23 = icmp eq ptr %0, null
  br i1 %23, label %arkode_butcher_dot.exit, label %.preheader

.preheader:                                       ; preds = %22, %.preheader
  %indvars.iv.i13 = phi i64 [ %indvars.iv.next.i14, %.preheader ], [ 0, %22 ]
  %24 = phi double [ %29, %.preheader ], [ 0.000000e+00, %22 ]
  %25 = getelementptr inbounds nuw double, ptr %0, i64 %indvars.iv.i13
  %26 = load double, ptr %25, align 8, !tbaa !18
  %27 = getelementptr inbounds nuw double, ptr %6, i64 %indvars.iv.i13
  %28 = load double, ptr %27, align 8, !tbaa !18
  %29 = tail call double @llvm.fmuladd.f64(double %26, double %28, double %24)
  %indvars.iv.next.i14 = add nuw nsw i64 %indvars.iv.i13, 1
  %exitcond.not.i15 = icmp eq i64 %indvars.iv.next.i14, %11
  br i1 %exitcond.not.i15, label %30, label %.preheader

30:                                               ; preds = %.preheader
  tail call void @free(ptr noundef nonnull %6) #17
  %31 = fadd double %29, 0xBFC5555555555555
  %32 = tail call double @llvm.fabs.f64(double %31)
  %33 = fcmp ule double %32, 0x3E50000000000000
  %34 = zext i1 %33 to i32
  br label %arkode_butcher_dot.exit

arkode_butcher_dot.exit:                          ; preds = %22, %30, %arkode_butcher_mv.exit
  %.0 = phi i32 [ 0, %arkode_butcher_mv.exit ], [ %34, %30 ], [ 0, %22 ]
  ret i32 %.0
}